target datalayout = "e-m:e-p270:32:32-p271:32:32-p272:64:64-i64:64-i128:128-f80:128-n8:16:32:64-S128"
target triple = "x86_64-pc-linux-gnu"

%struct.SDF_Renderer_Module_ = type { %struct.FT_RendererRec_, i32, i8, i8, i8 }
%struct.FT_RendererRec_ = type { %struct.FT_ModuleRec_, ptr, i32, %struct.FT_Glyph_Class_, ptr, ptr, ptr }
%struct.FT_ModuleRec_ = type { ptr, ptr, ptr }
%struct.FT_Glyph_Class_ = type { i64, i32, ptr, ptr, ptr, ptr, ptr, ptr }

@.str.5 = private unnamed_addr constant [7 x i8] c"spread\00", align 1
@.str.6 = private unnamed_addr constant [10 x i8] c"flip_sign\00", align 1
@.str.7 = private unnamed_addr constant [7 x i8] c"flip_y\00", align 1
@.str.8 = private unnamed_addr constant [9 x i8] c"overlaps\00", align 1

; Function Attrs: nounwind uwtable
define internal i32 @sdf_property_set(ptr noundef %0, ptr noundef %1, ptr noundef %2, i8 noundef zeroext %3) #0 {
  %5 = alloca i32, align 4
  %6 = alloca ptr, align 8
  %7 = alloca ptr, align 8
  %8 = alloca ptr, align 8
  %9 = alloca i8, align 1
  %10 = alloca i32, align 4
  %11 = alloca ptr, align 8
  %12 = alloca i32, align 4
  %13 = alloca i32, align 4
  %14 = alloca i32, align 4
  %15 = alloca i32, align 4
  %16 = alloca i8, align 1
  store ptr %0, ptr %6, align 8, !tbaa !3
  store ptr %1, ptr %7, align 8, !tbaa !25
  store ptr %2, ptr %8, align 8, !tbaa !85
  store i8 %3, ptr %9, align 1, !tbaa !95
  call void @llvm.lifetime.start.p0(i64 4, ptr %10) #7
  store i32 0, ptr %10, align 4, !tbaa !31
  call void @llvm.lifetime.start.p0(i64 8, ptr %11) #7
  %17 = load ptr, ptr %6, align 8, !tbaa !3
  store ptr %17, ptr %11, align 8, !tbaa !8
  %18 = load i8, ptr %9, align 1, !tbaa !95
  store i8 %18, ptr %9, align 1, !tbaa !95
  %19 = load ptr, ptr %7, align 8, !tbaa !25
  %20 = call i32 @strcmp(ptr noundef %19, ptr noundef @.str.5) #8
  %21 = icmp eq i32 %20, 0
  br i1 %21, label %22, label %47

22:                                               ; preds = %4
  call void @llvm.lifetime.start.p0(i64 4, ptr %12) #7
  %23 = load ptr, ptr %8, align 8, !tbaa !85
  %24 = load i32, ptr %23, align 4, !tbaa !31
  store i32 %24, ptr %12, align 4, !tbaa !31
  %25 = load i32, ptr %12, align 4, !tbaa !31
  %26 = icmp sgt i32 %25, 32
  br i1 %26, label %30, label %27

27:                                               ; preds = %22
  %28 = load i32, ptr %12, align 4, !tbaa !31
  %29 = icmp slt i32 %28, 2
  br i1 %29, label %30, label %37

30:                                               ; preds = %27, %22
  br label %31

31:                                               ; preds = %30
  br label %32

32:                                               ; preds = %31
  br label %33

33:                                               ; preds = %32
  br label %34

34:                                               ; preds = %33
  br label %35

35:                                               ; preds = %34
  br label %36

36:                                               ; preds = %35
  store i32 6, ptr %10, align 4, !tbaa !31
  store i32 6, ptr %13, align 4
  br label %44

37:                                               ; preds = %27
  %38 = load i32, ptr %12, align 4, !tbaa !31
  %39 = load ptr, ptr %11, align 8, !tbaa !8
  %40 = getelementptr inbounds nuw %struct.SDF_Renderer_Module_, ptr %39, i32 0, i32 1
  store i32 %38, ptr %40, align 8, !tbaa !10
  br label %41

41:                                               ; preds = %37
  br label %42

42:                                               ; preds = %41
  br label %43

43:                                               ; preds = %42
  store i32 0, ptr %13, align 4
  br label %44

44:                                               ; preds = %36, %43
  call void @llvm.lifetime.end.p0(i64 4, ptr %12) #7
  %45 = load i32, ptr %13, align 4
  switch i32 %45, label %102 [
    i32 0, label %46
    i32 6, label %100
  ]

46:                                               ; preds = %44
  br label %99

47:                                               ; preds = %4
  %48 = load ptr, ptr %7, align 8, !tbaa !25
  %49 = call i32 @strcmp(ptr noundef %48, ptr noundef @.str.6) #8
  %50 = icmp eq i32 %49, 0
  br i1 %50, label %51, label %63

51:                                               ; preds = %47
  call void @llvm.lifetime.start.p0(i64 4, ptr %14) #7
  %52 = load ptr, ptr %8, align 8, !tbaa !85
  %53 = load i32, ptr %52, align 4, !tbaa !31
  store i32 %53, ptr %14, align 4, !tbaa !31
  %54 = load i32, ptr %14, align 4, !tbaa !31
  %55 = icmp ne i32 %54, 0
  %56 = select i1 %55, i32 1, i32 0
  %57 = trunc i32 %56 to i8
  %58 = load ptr, ptr %11, align 8, !tbaa !8
  %59 = getelementptr inbounds nuw %struct.SDF_Renderer_Module_, ptr %58, i32 0, i32 2
  store i8 %57, ptr %59, align 4, !tbaa !22
  br label %60

60:                                               ; preds = %51
  br label %61

61:                                               ; preds = %60
  br label %62

62:                                               ; preds = %61
  call void @llvm.lifetime.end.p0(i64 4, ptr %14) #7
  br label %98

63:                                               ; preds = %47
  %64 = load ptr, ptr %7, align 8, !tbaa !25
  %65 = call i32 @strcmp(ptr noundef %64, ptr noundef @.str.7) #8
  %66 = icmp eq i32 %65, 0
  br i1 %66, label %67, label %79

67:                                               ; preds = %63
  call void @llvm.lifetime.start.p0(i64 4, ptr %15) #7
  %68 = load ptr, ptr %8, align 8, !tbaa !85
  %69 = load i32, ptr %68, align 4, !tbaa !31
  store i32 %69, ptr %15, align 4, !tbaa !31
  %70 = load i32, ptr %15, align 4, !tbaa !31
  %71 = icmp ne i32 %70, 0
  %72 = select i1 %71, i32 1, i32 0
  %73 = trunc i32 %72 to i8
  %74 = load ptr, ptr %11, align 8, !tbaa !8
  %75 = getelementptr inbounds nuw %struct.SDF_Renderer_Module_, ptr %74, i32 0, i32 3
  store i8 %73, ptr %75, align 1, !tbaa !23
  br label %76

76:                                               ; preds = %67
  br label %77

77:                                               ; preds = %76
  br label %78

78:                                               ; preds = %77
  call void @llvm.lifetime.end.p0(i64 4, ptr %15) #7
  br label %97

79:                                               ; preds = %63
  %80 = load ptr, ptr %7, align 8, !tbaa !25
  %81 = call i32 @strcmp(ptr noundef %80, ptr noundef @.str.8) #8
  %82 = icmp eq i32 %81, 0
  br i1 %82, label %83, label %92

83:                                               ; preds = %79
  call void @llvm.lifetime.start.p0(i64 1, ptr %16) #7
  %84 = load ptr, ptr %8, align 8, !tbaa !85
  %85 = load i8, ptr %84, align 1, !tbaa !95
  store i8 %85, ptr %16, align 1, !tbaa !95
  %86 = load i8, ptr %16, align 1, !tbaa !95
  %87 = load ptr, ptr %11, align 8, !tbaa !8
  %88 = getelementptr inbounds nuw %struct.SDF_Renderer_Module_, ptr %87, i32 0, i32 4
  store i8 %86, ptr %88, align 2, !tbaa !24
  br label %89

89:                                               ; preds = %83
  br label %90

90:                                               ; preds = %89
  br label %91

91:                                               ; preds = %90
  call void @llvm.lifetime.end.p0(i64 1, ptr %16) #7
  br label %96

92:                                               ; preds = %79
  br label %93

93:                                               ; preds = %92
  br label %94

94:                                               ; preds = %93
  br label %95

95:                                               ; preds = %94
  store i32 12, ptr %10, align 4, !tbaa !31
  br label %96

96:                                               ; preds = %95, %91
  br label %97

97:                                               ; preds = %96, %78
  br label %98

98:                                               ; preds = %97, %62
  br label %99

99:                                               ; preds = %98, %46
  br label %100

100:                                              ; preds = %99, %44
  %101 = load i32, ptr %10, align 4, !tbaa !31
  store i32 %101, ptr %5, align 4
  store i32 1, ptr %13, align 4
  br label %102

102:                                              ; preds = %100, %44
  call void @llvm.lifetime.end.p0(i64 8, ptr %11) #7
  call void @llvm.lifetime.end.p0(i64 4, ptr %10) #7
  %103 = load i32, ptr %5, align 4
  ret i32 %103
}