; Function Attrs: mustprogress nofree nounwind willreturn memory(argmem: readwrite) uwtable
define internal range(i32 0, 13) i32 @sdf_property_set(ptr noundef writeonly captures(none) %0, ptr noundef readonly captures(none) %1, ptr noundef readonly captures(none) %2, i8 zeroext %3) #5 {
  %5 = tail call i32 @strcmp(ptr noundef nonnull dereferenceable(1) %1, ptr noundef nonnull dereferenceable(7) @.str.5) #12
  %6 = icmp eq i32 %5, 0
  br i1 %6, label %7, label %12

7:                                                ; preds = %4
  %8 = load i32, ptr %2, align 4, !tbaa !21
  %9 = add i32 %8, -33
  %or.cond = icmp ult i32 %9, -31
  br i1 %or.cond, label %32, label %10

10:                                               ; preds = %7
  %11 = getelementptr inbounds nuw i8, ptr %0, i64 128
  store i32 %8, ptr %11, align 8, !tbaa !3
  br label %32

12:                                               ; preds = %4
  %13 = tail call i32 @strcmp(ptr noundef nonnull dereferenceable(1) %1, ptr noundef nonnull dereferenceable(10) @.str.6) #12
  %14 = icmp eq i32 %13, 0
  br i1 %14, label %15, label %19

15:                                               ; preds = %12
  %16 = load i32, ptr %2, align 4, !tbaa !21
  %.not26 = icmp ne i32 %16, 0
  %17 = zext i1 %.not26 to i8
  %18 = getelementptr inbounds nuw i8, ptr %0, i64 132
  store i8 %17, ptr %18, align 4, !tbaa !18
  br label %32

19:                                               ; preds = %12
  %20 = tail call i32 @strcmp(ptr noundef nonnull dereferenceable(1) %1, ptr noundef nonnull dereferenceable(7) @.str.7) #12
  %21 = icmp eq i32 %20, 0
  br i1 %21, label %22, label %26

22:                                               ; preds = %19
  %23 = load i32, ptr %2, align 4, !tbaa !21
  %.not = icmp ne i32 %23, 0
  %24 = zext i1 %.not to i8
  %25 = getelementptr inbounds nuw i8, ptr %0, i64 133
  store i8 %24, ptr %25, align 1, !tbaa !19
  br label %32

26:                                               ; preds = %19
  %27 = tail call i32 @strcmp(ptr noundef nonnull dereferenceable(1) %1, ptr noundef nonnull dereferenceable(9) @.str.8) #12
  %28 = icmp eq i32 %27, 0
  br i1 %28, label %29, label %32

29:                                               ; preds = %26
  %30 = load i8, ptr %2, align 1, !tbaa !77
  %31 = getelementptr inbounds nuw i8, ptr %0, i64 134
  store i8 %30, ptr %31, align 2, !tbaa !20
  br label %32

32:                                               ; preds = %10, %7, %15, %29, %22, %26
  %.0 = phi i32 [ 0, %15 ], [ 0, %22 ], [ 0, %29 ], [ 12, %26 ], [ 0, %10 ], [ 6, %7 ]
  ret i32 %.0
}